target datalayout = "e-m:e-p270:32:32-p271:32:32-p272:64:64-i64:64-i128:128-f80:128-n8:16:32:64-S128"
target triple = "x86_64-pc-linux-gnu"

%union.pthread_mutex_t = type { %struct.__pthread_mutex_s }
%struct.__pthread_mutex_s = type { i32, i32, i32, i32, i32, i16, i16, %struct.__pthread_internal_list }
%struct.__pthread_internal_list = type { ptr, ptr }
%struct.git_zstream = type { %struct.z_stream_s, i64, i64, i64, i64, ptr, ptr }
%struct.z_stream_s = type { ptr, i32, i64, ptr, i32, i64, ptr, ptr, ptr, ptr, ptr, i32, i64, i64 }

@obj_read_use_lock = dso_local global i32 0, align 4
@obj_read_mutex = dso_local global %union.pthread_mutex_t zeroinitializer, align 8
@.str.60 = private unnamed_addr constant [1 x i8] zeroinitializer, align 1
@git_gettext_enabled = external global i32, align 4
@.str.110 = private unnamed_addr constant [26 x i8] c"corrupt loose object '%s'\00", align 1
@.str.111 = private unnamed_addr constant [36 x i8] c"garbage at end of loose object '%s'\00", align 1

; Function Attrs: inlinehint nounwind uwtable
define internal i32 @const_error() #7 {
  ret i32 -1
}

; Function Attrs: inlinehint nounwind uwtable
define internal ptr @_(ptr noundef %0) #7 {
  %2 = alloca ptr, align 8
  %3 = alloca ptr, align 8
  store ptr %0, ptr %3, align 8, !tbaa !12
  %4 = load ptr, ptr %3, align 8, !tbaa !12
  %5 = load i8, ptr %4, align 1, !tbaa !58
  %6 = icmp ne i8 %5, 0
  br i1 %6, label %8, label %7

7:                                                ; preds = %1
  store ptr @.str.60, ptr %2, align 8
  br label %16

8:                                                ; preds = %1
  %9 = load i32, ptr @git_gettext_enabled, align 4, !tbaa !43
  %10 = icmp ne i32 %9, 0
  br i1 %10, label %13, label %11

11:                                               ; preds = %8
  %12 = load ptr, ptr %3, align 8, !tbaa !12
  store ptr %12, ptr %2, align 8
  br label %16

13:                                               ; preds = %8
  %14 = load ptr, ptr %3, align 8, !tbaa !12
  %15 = call ptr @dcgettext(ptr noundef null, ptr noundef %14, i32 noundef 5) #14
  store ptr %15, ptr %2, align 8
  br label %16

16:                                               ; preds = %13, %11, %7
  %17 = load ptr, ptr %2, align 8
  ret ptr %17
}

; Function Attrs: inlinehint nounwind uwtable
define internal void @obj_read_lock() #7 {
  %1 = load i32, ptr @obj_read_use_lock, align 4, !tbaa !43
  %2 = icmp ne i32 %1, 0
  br i1 %2, label %3, label %5

3:                                                ; preds = %0
  %4 = call i32 @pthread_mutex_lock(ptr noundef @obj_read_mutex) #14
  br label %5

5:                                                ; preds = %3, %0
  ret void
}

; Function Attrs: inlinehint nounwind uwtable
define internal void @obj_read_unlock() #7 {
  %1 = load i32, ptr @obj_read_use_lock, align 4, !tbaa !43
  %2 = icmp ne i32 %1, 0
  br i1 %2, label %3, label %5

3:                                                ; preds = %0
  %4 = call i32 @pthread_mutex_unlock(ptr noundef @obj_read_mutex) #14
  br label %5

5:                                                ; preds = %3, %0
  ret void
}

; Function Attrs: nounwind uwtable
define internal ptr @unpack_loose_rest(ptr noundef %0, ptr noundef %1, i64 noundef %2, ptr noundef %3) #0 {
  %5 = alloca ptr, align 8
  %6 = alloca ptr, align 8
  %7 = alloca ptr, align 8
  %8 = alloca i64, align 8
  %9 = alloca ptr, align 8
  %10 = alloca i32, align 4
  %11 = alloca ptr, align 8
  %12 = alloca i64, align 8
  %13 = alloca i32, align 4
  %14 = alloca i32, align 4
  store ptr %0, ptr %6, align 8, !tbaa !116
  store ptr %1, ptr %7, align 8, !tbaa !9
  store i64 %2, ptr %8, align 8, !tbaa !10
  store ptr %3, ptr %9, align 8, !tbaa !14
  call void @llvm.lifetime.start.p0(i64 4, ptr %10) #14
  %15 = load ptr, ptr %7, align 8, !tbaa !9
  %16 = call i64 @strlen(ptr noundef %15) #15
  %17 = add i64 %16, 1
  %18 = trunc i64 %17 to i32
  store i32 %18, ptr %10, align 4, !tbaa !43
  call void @llvm.lifetime.start.p0(i64 8, ptr %11) #14
  %19 = load i64, ptr %8, align 8, !tbaa !10
  %20 = call ptr @xmallocz(i64 noundef %19)
  store ptr %20, ptr %11, align 8, !tbaa !12
  call void @llvm.lifetime.start.p0(i64 8, ptr %12) #14
  call void @llvm.lifetime.start.p0(i64 4, ptr %13) #14
  store i32 0, ptr %13, align 4, !tbaa !43
  %21 = load ptr, ptr %6, align 8, !tbaa !116
  %22 = getelementptr inbounds nuw %struct.git_zstream, ptr %21, i32 0, i32 4
  %23 = load i64, ptr %22, align 8, !tbaa !195
  %24 = load i32, ptr %10, align 4, !tbaa !43
  %25 = sext i32 %24 to i64
  %26 = sub i64 %23, %25
  store i64 %26, ptr %12, align 8, !tbaa !10
  %27 = load i64, ptr %12, align 8, !tbaa !10
  %28 = load i64, ptr %8, align 8, !tbaa !10
  %29 = icmp ugt i64 %27, %28
  br i1 %29, label %30, label %32

30:                                               ; preds = %4
  %31 = load i64, ptr %8, align 8, !tbaa !10
  store i64 %31, ptr %12, align 8, !tbaa !10
  br label %32

32:                                               ; preds = %30, %4
  %33 = load ptr, ptr %11, align 8, !tbaa !12
  %34 = load ptr, ptr %7, align 8, !tbaa !9
  %35 = load i32, ptr %10, align 4, !tbaa !43
  %36 = sext i32 %35 to i64
  %37 = getelementptr inbounds i8, ptr %34, i64 %36
  %38 = load i64, ptr %12, align 8, !tbaa !10
  call void @llvm.memcpy.p0.p0.i64(ptr align 1 %33, ptr align 1 %37, i64 %38, i1 false)
  %39 = load i64, ptr %12, align 8, !tbaa !10
  %40 = trunc i64 %39 to i32
  store i32 %40, ptr %10, align 4, !tbaa !43
  %41 = load i32, ptr %10, align 4, !tbaa !43
  %42 = sext i32 %41 to i64
  %43 = load i64, ptr %8, align 8, !tbaa !10
  %44 = icmp ule i64 %42, %43
  br i1 %44, label %45, label %65

45:                                               ; preds = %32
  %46 = load ptr, ptr %11, align 8, !tbaa !12
  %47 = load i32, ptr %10, align 4, !tbaa !43
  %48 = sext i32 %47 to i64
  %49 = getelementptr inbounds i8, ptr %46, i64 %48
  %50 = load ptr, ptr %6, align 8, !tbaa !116
  %51 = getelementptr inbounds nuw %struct.git_zstream, ptr %50, i32 0, i32 6
  store ptr %49, ptr %51, align 8, !tbaa !123
  %52 = load i64, ptr %8, align 8, !tbaa !10
  %53 = load i32, ptr %10, align 4, !tbaa !43
  %54 = sext i32 %53 to i64
  %55 = sub i64 %52, %54
  %56 = load ptr, ptr %6, align 8, !tbaa !116
  %57 = getelementptr inbounds nuw %struct.git_zstream, ptr %56, i32 0, i32 2
  store i64 %55, ptr %57, align 8, !tbaa !124
  br label %58

58:                                               ; preds = %61, %45
  %59 = load i32, ptr %13, align 4, !tbaa !43
  %60 = icmp eq i32 %59, 0
  br i1 %60, label %61, label %64

61:                                               ; preds = %58
  call void @obj_read_unlock()
  %62 = load ptr, ptr %6, align 8, !tbaa !116
  %63 = call i32 @git_inflate(ptr noundef %62, i32 noundef 4)
  store i32 %63, ptr %13, align 4, !tbaa !43
  call void @obj_read_lock()
  br label %58, !llvm.loop !197

64:                                               ; preds = %58
  br label %65

65:                                               ; preds = %64, %32
  %66 = load i32, ptr %13, align 4, !tbaa !43
  %67 = icmp eq i32 %66, 1
  br i1 %67, label %68, label %76

68:                                               ; preds = %65
  %69 = load ptr, ptr %6, align 8, !tbaa !116
  %70 = getelementptr inbounds nuw %struct.git_zstream, ptr %69, i32 0, i32 1
  %71 = load i64, ptr %70, align 8, !tbaa !122
  %72 = icmp ne i64 %71, 0
  br i1 %72, label %76, label %73

73:                                               ; preds = %68
  %74 = load ptr, ptr %6, align 8, !tbaa !116
  call void @git_inflate_end(ptr noundef %74)
  %75 = load ptr, ptr %11, align 8, !tbaa !12
  store ptr %75, ptr %5, align 8
  store i32 1, ptr %14, align 4
  br label %99

76:                                               ; preds = %68, %65
  %77 = load i32, ptr %13, align 4, !tbaa !43
  %78 = icmp slt i32 %77, 0
  br i1 %78, label %79, label %85

79:                                               ; preds = %76
  %80 = call ptr @_(ptr noundef @.str.110)
  %81 = load ptr, ptr %9, align 8, !tbaa !14
  %82 = call ptr @oid_to_hex(ptr noundef %81)
  %83 = call i32 (ptr, ...) @error(ptr noundef %80, ptr noundef %82)
  %84 = call i32 @const_error()
  br label %97

85:                                               ; preds = %76
  %86 = load ptr, ptr %6, align 8, !tbaa !116
  %87 = getelementptr inbounds nuw %struct.git_zstream, ptr %86, i32 0, i32 1
  %88 = load i64, ptr %87, align 8, !tbaa !122
  %89 = icmp ne i64 %88, 0
  br i1 %89, label %90, label %96

90:                                               ; preds = %85
  %91 = call ptr @_(ptr noundef @.str.111)
  %92 = load ptr, ptr %9, align 8, !tbaa !14
  %93 = call ptr @oid_to_hex(ptr noundef %92)
  %94 = call i32 (ptr, ...) @error(ptr noundef %91, ptr noundef %93)
  %95 = call i32 @const_error()
  br label %96

96:                                               ; preds = %90, %85
  br label %97

97:                                               ; preds = %96, %79
  %98 = load ptr, ptr %11, align 8, !tbaa !12
  call void @free(ptr noundef %98) #14
  store ptr null, ptr %5, align 8
  store i32 1, ptr %14, align 4
  br label %99

99:                                               ; preds = %97, %73
  call void @llvm.lifetime.end.p0(i64 4, ptr %13) #14
  call void @llvm.lifetime.end.p0(i64 8, ptr %12) #14
  call void @llvm.lifetime.end.p0(i64 8, ptr %11) #14
  call void @llvm.lifetime.end.p0(i64 4, ptr %10) #14
  %100 = load ptr, ptr %5, align 8
  ret ptr %100
}