; Function Attrs: nounwind uwtable
define internal fastcc ptr @unpack_loose_rest(ptr noundef nonnull %0, ptr noundef nonnull readonly captures(none) %1, i64 noundef %2, ptr noundef %3) unnamed_addr #1 {
  %5 = tail call i64 @strlen(ptr noundef nonnull dereferenceable(1) %1) #28
  %6 = tail call ptr @xmallocz(i64 noundef %2) #27
  %7 = getelementptr inbounds nuw i8, ptr %0, i64 136
  %8 = load i64, ptr %7, align 8, !tbaa !169
  %9 = shl i64 %5, 32
  %sext = add i64 %9, 4294967296
  %10 = ashr exact i64 %sext, 32
  %11 = sub i64 %8, %10
  %spec.select = tail call i64 @llvm.umin.i64(i64 %11, i64 %2)
  %12 = getelementptr inbounds i8, ptr %1, i64 %10
  tail call void @llvm.memcpy.p0.p0.i64(ptr align 1 %6, ptr nonnull align 1 %12, i64 %spec.select, i1 false)
  %sext37 = shl i64 %spec.select, 32
  %13 = ashr exact i64 %sext37, 32
  %.not = icmp ugt i64 %13, %2
  br i1 %.not, label %.thread46, label %14

14:                                               ; preds = %4
  %15 = getelementptr inbounds i8, ptr %6, i64 %13
  %16 = getelementptr inbounds nuw i8, ptr %0, i64 152
  store ptr %15, ptr %16, align 8, !tbaa !109
  %17 = sub nuw i64 %2, %13
  %18 = getelementptr inbounds nuw i8, ptr %0, i64 120
  store i64 %17, ptr %18, align 8, !tbaa !110
  br label %obj_read_lock.exit

obj_read_lock.exit:                               ; preds = %obj_read_lock.exit.backedge, %14
  %.1 = phi i32 [ 0, %14 ], [ %23, %obj_read_lock.exit.backedge ]
  switch i32 %.1, label %31 [
    i32 0, label %19
    i32 1, label %27
  ]

19:                                               ; preds = %obj_read_lock.exit
  %20 = load i32, ptr @obj_read_use_lock, align 4, !tbaa !44
  %.not.i = icmp eq i32 %20, 0
  br i1 %.not.i, label %obj_read_unlock.exit, label %21

21:                                               ; preds = %19
  %22 = tail call i32 @pthread_mutex_unlock(ptr noundef nonnull @obj_read_mutex) #27
  br label %obj_read_unlock.exit

obj_read_unlock.exit:                             ; preds = %19, %21
  %23 = tail call i32 @git_inflate(ptr noundef nonnull %0, i32 noundef 4) #27
  %24 = load i32, ptr @obj_read_use_lock, align 4, !tbaa !44
  %.not.i40 = icmp eq i32 %24, 0
  br i1 %.not.i40, label %obj_read_lock.exit.backedge, label %25

obj_read_lock.exit.backedge:                      ; preds = %obj_read_unlock.exit, %25
  br label %obj_read_lock.exit, !llvm.loop !171

25:                                               ; preds = %obj_read_unlock.exit
  %26 = tail call i32 @pthread_mutex_lock(ptr noundef nonnull @obj_read_mutex) #27
  br label %obj_read_lock.exit.backedge

27:                                               ; preds = %obj_read_lock.exit
  %28 = getelementptr inbounds nuw i8, ptr %0, i64 112
  %29 = load i64, ptr %28, align 8, !tbaa !108
  %.not38 = icmp eq i64 %29, 0
  br i1 %.not38, label %30, label %.thread46

30:                                               ; preds = %27
  tail call void @git_inflate_end(ptr noundef nonnull %0) #27
  br label %43

31:                                               ; preds = %obj_read_lock.exit
  %32 = icmp slt i32 %.1, 0
  br i1 %32, label %33, label %.thread46

33:                                               ; preds = %31
  %34 = load i32, ptr @git_gettext_enabled, align 4, !tbaa !44
  %.not4.i = icmp eq i32 %34, 0
  br i1 %.not4.i, label %.sink.split, label %.sink.split.sink.split

.thread46:                                        ; preds = %4, %27, %31
  %35 = getelementptr inbounds nuw i8, ptr %0, i64 112
  %36 = load i64, ptr %35, align 8, !tbaa !108
  %.not39 = icmp eq i64 %36, 0
  br i1 %.not39, label %42, label %37

37:                                               ; preds = %.thread46
  %38 = load i32, ptr @git_gettext_enabled, align 4, !tbaa !44
  %.not4.i41 = icmp eq i32 %38, 0
  br i1 %.not4.i41, label %.sink.split, label %.sink.split.sink.split

.sink.split.sink.split:                           ; preds = %37, %33
  %.str.111.sink = phi ptr [ @.str.110, %33 ], [ @.str.111, %37 ]
  %39 = tail call ptr @dcgettext(ptr noundef null, ptr noundef nonnull %.str.111.sink, i32 noundef 5) #27
  br label %.sink.split

.sink.split:                                      ; preds = %.sink.split.sink.split, %37, %33
  %.0.i42.sink = phi ptr [ @.str.110, %33 ], [ @.str.111, %37 ], [ %39, %.sink.split.sink.split ]
  %40 = tail call ptr @oid_to_hex(ptr noundef %3) #27
  %41 = tail call i32 (ptr, ...) @error(ptr noundef %.0.i42.sink, ptr noundef %40) #27
  br label %42

42:                                               ; preds = %.sink.split, %.thread46
  tail call void @free(ptr noundef %6) #27
  br label %43

43:                                               ; preds = %42, %30
  %.032 = phi ptr [ null, %42 ], [ %6, %30 ]
  ret ptr %.032
}